; Function Attrs: mustprogress nofree norecurse nosync nounwind willreturn memory(read, inaccessiblemem: none) uwtable
define noundef range(i32 -1, 2) i32 @_ZN17double_conversion6Bignum11PlusCompareERKS0_S2_S2_(ptr noundef nonnull readonly align 4 captures(none) dereferenceable(516) %0, ptr noundef nonnull readonly align 4 captures(none) dereferenceable(516) %1, ptr noundef nonnull readonly align 4 captures(none) dereferenceable(516) %2) local_unnamed_addr #8 align 2 {
  %.pre = load i16, ptr %0, align 4, !tbaa !3
  %.phi.trans.insert = getelementptr inbounds nuw i8, ptr %0, i64 2
  %.pre97 = load i16, ptr %.phi.trans.insert, align 2, !tbaa !8
  br label %tailrecurse

tailrecurse:                                      ; preds = %tailrecurse, %3
  %4 = phi i16 [ %.pre97, %3 ], [ %12, %tailrecurse ]
  %5 = phi i16 [ %.pre, %3 ], [ %9, %tailrecurse ]
  %.tr = phi ptr [ %0, %3 ], [ %.tr65, %tailrecurse ]
  %.tr65 = phi ptr [ %1, %3 ], [ %.tr, %tailrecurse ]
  %6 = sext i16 %5 to i32
  %7 = sext i16 %4 to i32
  %8 = add nsw i32 %7, %6
  %9 = load i16, ptr %.tr65, align 4, !tbaa !3
  %10 = sext i16 %9 to i32
  %11 = getelementptr inbounds nuw i8, ptr %.tr65, i64 2
  %12 = load i16, ptr %11, align 2, !tbaa !8
  %13 = sext i16 %12 to i32
  %14 = add nsw i32 %13, %10
  %15 = icmp slt i32 %8, %14
  br i1 %15, label %tailrecurse, label %16

16:                                               ; preds = %tailrecurse
  %17 = getelementptr inbounds nuw i8, ptr %.tr, i64 2
  %18 = add nsw i32 %8, 1
  %19 = load i16, ptr %2, align 4, !tbaa !3
  %20 = sext i16 %19 to i32
  %21 = getelementptr inbounds nuw i8, ptr %2, i64 2
  %22 = load i16, ptr %21, align 2, !tbaa !8
  %23 = sext i16 %22 to i32
  %24 = add nsw i32 %23, %20
  %25 = icmp slt i32 %18, %24
  br i1 %25, label %.thread, label %26

26:                                               ; preds = %16
  %27 = icmp sgt i32 %8, %24
  br i1 %27, label %.thread, label %28

28:                                               ; preds = %26
  %.not = icmp sle i32 %14, %7
  %29 = icmp slt i32 %8, %24
  %or.cond = and i1 %.not, %29
  br i1 %or.cond, label %.thread, label %30

30:                                               ; preds = %28
  %31 = icmp slt i16 %12, %4
  %.val64 = load i16, ptr %17, align 2
  %32 = select i1 %31, i16 %12, i16 %.val64
  %33 = tail call i16 @llvm.smin.i16(i16 %22, i16 %32)
  %34 = sext i16 %33 to i32
  %.not50.not.not77 = icmp sgt i32 %24, %34
  br i1 %.not50.not.not77, label %.lr.ph, label %.thread

.lr.ph:                                           ; preds = %30
  %35 = getelementptr inbounds nuw i8, ptr %.tr, i64 4
  %36 = getelementptr inbounds nuw i8, ptr %.tr65, i64 4
  %37 = getelementptr inbounds nuw i8, ptr %2, i64 4
  %38 = sext i16 %19 to i64
  %39 = sext i16 %22 to i64
  %40 = add nsw i64 %38, %39
  %41 = sext i16 %22 to i64
  %42 = sext i32 %24 to i64
  %43 = sext i16 %12 to i64
  %44 = sext i32 %14 to i64
  %45 = sext i16 %4 to i64
  %46 = sext i32 %8 to i64
  %47 = sext i16 %33 to i64
  br label %48

48:                                               ; preds = %.lr.ph, %70
  %indvars.iv = phi i64 [ %40, %.lr.ph ], [ %indvars.iv.next, %70 ]
  %.04079 = phi i32 [ 0, %.lr.ph ], [ %71, %70 ]
  %indvars.iv.next = add nsw i64 %indvars.iv, -1
  %.not.i = icmp sgt i64 %indvars.iv, %46
  %49 = icmp sle i64 %indvars.iv, %45
  %or.cond.i = or i1 %49, %.not.i
  br i1 %or.cond.i, label %_ZNK17double_conversion6Bignum11BigitOrZeroEi.exit, label %50

50:                                               ; preds = %48
  %51 = sub nsw i64 %indvars.iv.next, %45
  %52 = getelementptr inbounds [128 x i32], ptr %35, i64 0, i64 %51
  %53 = load i32, ptr %52, align 4, !tbaa !9
  br label %_ZNK17double_conversion6Bignum11BigitOrZeroEi.exit

_ZNK17double_conversion6Bignum11BigitOrZeroEi.exit: ; preds = %48, %50
  %.0.i = phi i32 [ %53, %50 ], [ 0, %48 ]
  %.not.i52 = icmp sgt i64 %indvars.iv, %44
  %54 = icmp sle i64 %indvars.iv, %43
  %or.cond.i53 = or i1 %54, %.not.i52
  br i1 %or.cond.i53, label %_ZNK17double_conversion6Bignum11BigitOrZeroEi.exit55, label %55

55:                                               ; preds = %_ZNK17double_conversion6Bignum11BigitOrZeroEi.exit
  %56 = sub nsw i64 %indvars.iv.next, %43
  %57 = getelementptr inbounds [128 x i32], ptr %36, i64 0, i64 %56
  %58 = load i32, ptr %57, align 4, !tbaa !9
  br label %_ZNK17double_conversion6Bignum11BigitOrZeroEi.exit55

_ZNK17double_conversion6Bignum11BigitOrZeroEi.exit55: ; preds = %_ZNK17double_conversion6Bignum11BigitOrZeroEi.exit, %55
  %.0.i54 = phi i32 [ %58, %55 ], [ 0, %_ZNK17double_conversion6Bignum11BigitOrZeroEi.exit ]
  %.not.i56 = icmp sgt i64 %indvars.iv, %42
  %59 = icmp sle i64 %indvars.iv, %41
  %or.cond.i57 = or i1 %59, %.not.i56
  br i1 %or.cond.i57, label %_ZNK17double_conversion6Bignum11BigitOrZeroEi.exit59, label %60

60:                                               ; preds = %_ZNK17double_conversion6Bignum11BigitOrZeroEi.exit55
  %61 = sub nsw i64 %indvars.iv.next, %41
  %62 = getelementptr inbounds [128 x i32], ptr %37, i64 0, i64 %61
  %63 = load i32, ptr %62, align 4, !tbaa !9
  br label %_ZNK17double_conversion6Bignum11BigitOrZeroEi.exit59

_ZNK17double_conversion6Bignum11BigitOrZeroEi.exit59: ; preds = %_ZNK17double_conversion6Bignum11BigitOrZeroEi.exit55, %60
  %.0.i58 = phi i32 [ %63, %60 ], [ 0, %_ZNK17double_conversion6Bignum11BigitOrZeroEi.exit55 ]
  %64 = add i32 %.0.i54, %.0.i
  %65 = add i32 %.0.i58, %.04079
  %66 = icmp ugt i32 %64, %65
  br i1 %66, label %.thread, label %67

67:                                               ; preds = %_ZNK17double_conversion6Bignum11BigitOrZeroEi.exit59
  %68 = sub nuw i32 %65, %64
  %69 = icmp ugt i32 %68, 1
  br i1 %69, label %.thread, label %70

70:                                               ; preds = %67
  %71 = shl nuw nsw i32 %68, 28
  %.not50.not.not = icmp sgt i64 %indvars.iv.next, %47
  br i1 %.not50.not.not, label %48, label %.thread.loopexit, !llvm.loop !51

.thread.loopexit:                                 ; preds = %70
  %72 = icmp ne i32 %65, %64
  %73 = sext i1 %72 to i32
  br label %.thread

.thread:                                          ; preds = %67, %_ZNK17double_conversion6Bignum11BigitOrZeroEi.exit59, %30, %.thread.loopexit, %28, %26, %16
  %.0 = phi i32 [ -1, %16 ], [ 1, %26 ], [ -1, %28 ], [ 0, %30 ], [ %73, %.thread.loopexit ], [ 1, %_ZNK17double_conversion6Bignum11BigitOrZeroEi.exit59 ], [ -1, %67 ]
  ret i32 %.0
}